target datalayout = "e-m:e-p270:32:32-p271:32:32-p272:64:64-i64:64-i128:128-f80:128-n8:16:32:64-S128"
target triple = "x86_64-pc-linux-gnu"

@trace2_enabled = internal global i32 0, align 4
@trace2_cmd_list_config_fl.emitted = internal global i32 0, align 4

; Function Attrs: nounwind uwtable
define dso_local void @trace2_cmd_list_config_fl(ptr noundef %0, i32 noundef %1) #0 {
  %3 = alloca ptr, align 8
  %4 = alloca i32, align 4
  store ptr %0, ptr %3, align 8, !tbaa !4
  store i32 %1, ptr %4, align 4, !tbaa !9
  %5 = load i32, ptr @trace2_enabled, align 4, !tbaa !9
  %6 = icmp ne i32 %5, 0
  br i1 %6, label %8, label %7

7:                                                ; preds = %2
  br label %15

8:                                                ; preds = %2
  %9 = load i32, ptr @trace2_cmd_list_config_fl.emitted, align 4, !tbaa !9
  %10 = icmp ne i32 %9, 0
  br i1 %10, label %11, label %12

11:                                               ; preds = %8
  br label %15

12:                                               ; preds = %8
  store i32 1, ptr @trace2_cmd_list_config_fl.emitted, align 4, !tbaa !9
  %13 = load ptr, ptr %3, align 8, !tbaa !4
  %14 = load i32, ptr %4, align 4, !tbaa !9
  call void @tr2_cfg_list_config_fl(ptr noundef %13, i32 noundef %14)
  br label %15

15:                                               ; preds = %12, %11, %7
  ret void
}