; Function Attrs: nounwind uwtable
define dso_local void @trace2_cmd_list_config_fl(ptr noundef %0, i32 noundef %1) local_unnamed_addr #0 {
  %.b = load i1, ptr @trace2_enabled, align 4
  %3 = xor i1 %.b, true
  %.b2 = load i1, ptr @trace2_cmd_list_config_fl.emitted, align 4
  %or.cond = select i1 %3, i1 true, i1 %.b2
  br i1 %or.cond, label %5, label %4

4:                                                ; preds = %2
  store i1 true, ptr @trace2_cmd_list_config_fl.emitted, align 4
  tail call void @tr2_cfg_list_config_fl(ptr noundef %0, i32 noundef %1) #11
  br label %5

5:                                                ; preds = %2, %4
  ret void
}